target datalayout = "e-m:e-p270:32:32-p271:32:32-p272:64:64-i64:64-i128:128-f80:128-n8:16:32:64-S128"
target triple = "x86_64-pc-linux-gnu"

%"class.std::basic_string_view" = type { i64, ptr }

; Function Attrs: mustprogress nounwind uwtable
define linkonce_odr noundef ptr @_ZNKSt17basic_string_viewIcSt11char_traitsIcEE3endEv(ptr noundef nonnull align 8 dereferenceable(16) %0) #0 comdat align 2 {
  %2 = alloca ptr, align 8
  store ptr %0, ptr %2, align 8, !tbaa !29
  %3 = load ptr, ptr %2, align 8
  %4 = getelementptr inbounds nuw %"class.std::basic_string_view", ptr %3, i32 0, i32 1
  %5 = load ptr, ptr %4, align 8, !tbaa !113
  %6 = getelementptr inbounds nuw %"class.std::basic_string_view", ptr %3, i32 0, i32 0
  %7 = load i64, ptr %6, align 8, !tbaa !112
  %8 = getelementptr inbounds nuw i8, ptr %5, i64 %7
  ret ptr %8
}

; Function Attrs: mustprogress nounwind uwtable
define linkonce_odr noundef ptr @_ZNKSt17basic_string_viewIcSt11char_traitsIcEE5beginEv(ptr noundef nonnull align 8 dereferenceable(16) %0) #0 comdat align 2 {
  %2 = alloca ptr, align 8
  store ptr %0, ptr %2, align 8, !tbaa !29
  %3 = load ptr, ptr %2, align 8
  %4 = getelementptr inbounds nuw %"class.std::basic_string_view", ptr %3, i32 0, i32 1
  %5 = load ptr, ptr %4, align 8, !tbaa !113
  ret ptr %5
}

; Function Attrs: mustprogress uwtable
define internal noundef zeroext i1 @_ZN12_GLOBAL__N_123isSpecialTypeRgKeyValueESt17basic_string_viewIcSt11char_traitsIcEE(i64 %0, ptr %1) #1 {
  %3 = alloca i1, align 1
  %4 = alloca %"class.std::basic_string_view", align 8
  %5 = alloca i32, align 4
  %6 = alloca ptr, align 8
  %7 = alloca ptr, align 8
  %8 = alloca ptr, align 8
  %9 = alloca i32, align 4
  %10 = alloca i8, align 1
  %11 = getelementptr inbounds nuw { i64, ptr }, ptr %4, i32 0, i32 0
  store i64 %0, ptr %11, align 8
  %12 = getelementptr inbounds nuw { i64, ptr }, ptr %4, i32 0, i32 1
  store ptr %1, ptr %12, align 8
  call void @llvm.lifetime.start.p0(i64 4, ptr %5) #13
  store i32 0, ptr %5, align 4, !tbaa !14
  call void @llvm.lifetime.start.p0(i64 8, ptr %6) #13
  store ptr %4, ptr %6, align 8, !tbaa !29
  call void @llvm.lifetime.start.p0(i64 8, ptr %7) #13
  %13 = load ptr, ptr %6, align 8, !tbaa !29
  %14 = call noundef ptr @_ZNKSt17basic_string_viewIcSt11char_traitsIcEE5beginEv(ptr noundef nonnull align 8 dereferenceable(16) %13) #13
  store ptr %14, ptr %7, align 8, !tbaa !17
  call void @llvm.lifetime.start.p0(i64 8, ptr %8) #13
  %15 = load ptr, ptr %6, align 8, !tbaa !29
  %16 = call noundef ptr @_ZNKSt17basic_string_viewIcSt11char_traitsIcEE3endEv(ptr noundef nonnull align 8 dereferenceable(16) %15) #13
  store ptr %16, ptr %8, align 8, !tbaa !17
  br label %17

17:                                               ; preds = %50, %2
  %18 = load ptr, ptr %7, align 8, !tbaa !17
  %19 = load ptr, ptr %8, align 8, !tbaa !17
  %20 = icmp ne ptr %18, %19
  br i1 %20, label %22, label %21

21:                                               ; preds = %17
  store i32 2, ptr %9, align 4
  br label %53

22:                                               ; preds = %17
  call void @llvm.lifetime.start.p0(i64 1, ptr %10) #13
  %23 = load ptr, ptr %7, align 8, !tbaa !17
  %24 = load i8, ptr %23, align 1, !tbaa !46
  store i8 %24, ptr %10, align 1, !tbaa !46
  %25 = load i32, ptr %5, align 4, !tbaa !14
  %26 = icmp slt i32 %25, 2
  br i1 %26, label %27, label %31

27:                                               ; preds = %22
  %28 = load i8, ptr %10, align 1, !tbaa !46
  %29 = call signext i8 @uprv_isASCIILetter_77(i8 noundef signext %28)
  %30 = icmp ne i8 %29, 0
  br i1 %30, label %42, label %31

31:                                               ; preds = %27, %22
  %32 = load i32, ptr %5, align 4, !tbaa !14
  %33 = icmp sge i32 %32, 2
  br i1 %33, label %34, label %45

34:                                               ; preds = %31
  %35 = load i8, ptr %10, align 1, !tbaa !46
  %36 = sext i8 %35 to i32
  %37 = icmp eq i32 %36, 90
  br i1 %37, label %42, label %38

38:                                               ; preds = %34
  %39 = load i8, ptr %10, align 1, !tbaa !46
  %40 = sext i8 %39 to i32
  %41 = icmp eq i32 %40, 122
  br i1 %41, label %42, label %45

42:                                               ; preds = %38, %34, %27
  %43 = load i32, ptr %5, align 4, !tbaa !14
  %44 = add nsw i32 %43, 1
  store i32 %44, ptr %5, align 4, !tbaa !14
  br label %46

45:                                               ; preds = %38, %31
  store i1 false, ptr %3, align 1
  store i32 1, ptr %9, align 4
  br label %47

46:                                               ; preds = %42
  store i32 0, ptr %9, align 4
  br label %47

47:                                               ; preds = %46, %45
  call void @llvm.lifetime.end.p0(i64 1, ptr %10) #13
  %48 = load i32, ptr %9, align 4
  switch i32 %48, label %53 [
    i32 0, label %49
  ]

49:                                               ; preds = %47
  br label %50

50:                                               ; preds = %49
  %51 = load ptr, ptr %7, align 8, !tbaa !17
  %52 = getelementptr inbounds nuw i8, ptr %51, i32 1
  store ptr %52, ptr %7, align 8, !tbaa !17
  br label %17

53:                                               ; preds = %47, %21
  call void @llvm.lifetime.end.p0(i64 8, ptr %8) #13
  call void @llvm.lifetime.end.p0(i64 8, ptr %7) #13
  call void @llvm.lifetime.end.p0(i64 8, ptr %6) #13
  %54 = load i32, ptr %9, align 4
  switch i32 %54, label %58 [
    i32 2, label %55
  ]

55:                                               ; preds = %53
  %56 = load i32, ptr %5, align 4, !tbaa !14
  %57 = icmp eq i32 %56, 6
  store i1 %57, ptr %3, align 1
  store i32 1, ptr %9, align 4
  br label %58

58:                                               ; preds = %55, %53
  call void @llvm.lifetime.end.p0(i64 4, ptr %5) #13
  %59 = load i1, ptr %3, align 1
  ret i1 %59
}