; Function Attrs: mustprogress uwtable
define internal fastcc noundef zeroext i1 @_ZN12_GLOBAL__N_123isSpecialTypeRgKeyValueESt17basic_string_viewIcSt11char_traitsIcEE(i64 %0, ptr readonly %1) unnamed_addr #1 {
  %3 = getelementptr inbounds nuw i8, ptr %1, i64 %0
  %.not32 = icmp samesign eq i64 %0, 0
  br i1 %.not32, label %.thread29, label %.lr.ph.preheader

.lr.ph.preheader:                                 ; preds = %2
  %4 = trunc i64 %0 to i32
  br label %.lr.ph

.lr.ph:                                           ; preds = %.lr.ph.preheader, %11
  %.02034 = phi i32 [ %12, %11 ], [ 0, %.lr.ph.preheader ]
  %.02333 = phi ptr [ %13, %11 ], [ %1, %.lr.ph.preheader ]
  %5 = load i8, ptr %.02333, align 1, !tbaa !69
  %6 = icmp samesign ult i32 %.02034, 2
  br i1 %6, label %7, label %9

7:                                                ; preds = %.lr.ph
  %8 = tail call signext i8 @uprv_isASCIILetter_77(i8 noundef signext %5)
  %.not24 = icmp eq i8 %8, 0
  br i1 %.not24, label %.thread29.loopexit, label %11

9:                                                ; preds = %.lr.ph
  %10 = and i8 %5, -33
  %or.cond = icmp eq i8 %10, 90
  br i1 %or.cond, label %11, label %.thread29.loopexit

11:                                               ; preds = %9, %7
  %12 = add nuw nsw i32 %.02034, 1
  %13 = getelementptr inbounds nuw i8, ptr %.02333, i64 1
  %.not = icmp eq ptr %13, %3
  br i1 %.not, label %.thread29.loopexit, label %.lr.ph

.thread29.loopexit:                               ; preds = %7, %9, %11
  %.020.lcssa.ph = phi i32 [ %4, %11 ], [ %.02034, %9 ], [ %.02034, %7 ]
  %.not.lcssa.ph = phi i1 [ true, %11 ], [ false, %9 ], [ false, %7 ]
  %14 = icmp eq i32 %.020.lcssa.ph, 6
  %15 = and i1 %.not.lcssa.ph, %14
  br label %.thread29

.thread29:                                        ; preds = %.thread29.loopexit, %2
  %.3 = phi i1 [ false, %2 ], [ %15, %.thread29.loopexit ]
  ret i1 %.3
}